target datalayout = "e-m:e-p270:32:32-p271:32:32-p272:64:64-i64:64-i128:128-f80:128-n8:16:32:64-S128"
target triple = "x86_64-pc-linux-gnu"

%struct.ARKodeMemRec = type { ptr, double, ptr, i32, i32, double, double, ptr, i32, double, ptr, i32, i32, ptr, ptr, i32, ptr, ptr, i32, ptr, ptr, ptr, ptr, ptr, ptr, ptr, ptr, ptr, ptr, ptr, ptr, ptr, ptr, ptr, i32, ptr, ptr, i32, ptr, i32, ptr, ptr, ptr, ptr, ptr, ptr, ptr, ptr, ptr, ptr, ptr, ptr, ptr, ptr, ptr, ptr, ptr, ptr, ptr, ptr, ptr, ptr, ptr, ptr, ptr, ptr, i32, ptr, ptr, ptr, ptr, ptr, ptr, ptr, i32, ptr, ptr, ptr, i32, ptr, ptr, ptr, ptr, ptr, ptr, ptr, i32, i32, i32, i32, double, double, double, double, double, double, double, double, double, double, i32, ptr, i64, i32, i32, i32, i32, i64, i64, i32, i64, i64, i64, i64, i64, i64, i64, double, double, double, double, double, i32, double, double, i32, i32, i32, i32, i32, i32, i32, i32, ptr, i32, ptr, ptr, ptr, ptr, i32, i32, i32 }

; Function Attrs: nounwind uwtable
define i32 @arkRwtSetSV(ptr noundef %0, ptr noundef %1, ptr noundef %2) #0 {
  %4 = alloca i32, align 4
  %5 = alloca ptr, align 8
  %6 = alloca ptr, align 8
  %7 = alloca ptr, align 8
  store ptr %0, ptr %5, align 8, !tbaa !11
  store ptr %1, ptr %6, align 8, !tbaa !7
  store ptr %2, ptr %7, align 8, !tbaa !7
  %8 = load ptr, ptr %6, align 8, !tbaa !7
  %9 = load ptr, ptr %5, align 8, !tbaa !11
  %10 = getelementptr inbounds nuw %struct.ARKodeMemRec, ptr %9, i32 0, i32 79
  %11 = load ptr, ptr %10, align 8, !tbaa !85
  call void @N_VAbs(ptr noundef %8, ptr noundef %11)
  %12 = load ptr, ptr %5, align 8, !tbaa !11
  %13 = getelementptr inbounds nuw %struct.ARKodeMemRec, ptr %12, i32 0, i32 5
  %14 = load double, ptr %13, align 8, !tbaa !79
  %15 = load ptr, ptr %5, align 8, !tbaa !11
  %16 = getelementptr inbounds nuw %struct.ARKodeMemRec, ptr %15, i32 0, i32 79
  %17 = load ptr, ptr %16, align 8, !tbaa !85
  %18 = load ptr, ptr %5, align 8, !tbaa !11
  %19 = getelementptr inbounds nuw %struct.ARKodeMemRec, ptr %18, i32 0, i32 10
  %20 = load ptr, ptr %19, align 8, !tbaa !102
  %21 = load ptr, ptr %5, align 8, !tbaa !11
  %22 = getelementptr inbounds nuw %struct.ARKodeMemRec, ptr %21, i32 0, i32 79
  %23 = load ptr, ptr %22, align 8, !tbaa !85
  call void @N_VLinearSum(double noundef %14, ptr noundef %17, double noundef 1.000000e+00, ptr noundef %20, ptr noundef %23)
  %24 = load ptr, ptr %5, align 8, !tbaa !11
  %25 = getelementptr inbounds nuw %struct.ARKodeMemRec, ptr %24, i32 0, i32 11
  %26 = load i32, ptr %25, align 8, !tbaa !95
  %27 = icmp ne i32 %26, 0
  br i1 %27, label %28, label %36

28:                                               ; preds = %3
  %29 = load ptr, ptr %5, align 8, !tbaa !11
  %30 = getelementptr inbounds nuw %struct.ARKodeMemRec, ptr %29, i32 0, i32 79
  %31 = load ptr, ptr %30, align 8, !tbaa !85
  %32 = call double @N_VMin(ptr noundef %31)
  %33 = fcmp ole double %32, 0.000000e+00
  br i1 %33, label %34, label %35

34:                                               ; preds = %28
  store i32 -1, ptr %4, align 4
  br label %41

35:                                               ; preds = %28
  br label %36

36:                                               ; preds = %35, %3
  %37 = load ptr, ptr %5, align 8, !tbaa !11
  %38 = getelementptr inbounds nuw %struct.ARKodeMemRec, ptr %37, i32 0, i32 79
  %39 = load ptr, ptr %38, align 8, !tbaa !85
  %40 = load ptr, ptr %7, align 8, !tbaa !7
  call void @N_VInv(ptr noundef %39, ptr noundef %40)
  store i32 0, ptr %4, align 4
  br label %41

41:                                               ; preds = %36, %34
  %42 = load i32, ptr %4, align 4
  ret i32 %42
}